; Function Attrs: nounwind uwtable
define i64 @ZSTD_sizeof_DCtx(ptr noundef readonly captures(address_is_null) %0) local_unnamed_addr #0 {
  %2 = icmp eq ptr %0, null
  br i1 %2, label %14, label %3

3:                                                ; preds = %1
  %4 = getelementptr inbounds nuw i8, ptr %0, i64 30184
  %5 = load ptr, ptr %4, align 8, !tbaa !3
  %6 = tail call i64 @ZSTD_sizeof_DDict(ptr noundef %5) #17
  %7 = add i64 %6, 95992
  %8 = getelementptr inbounds nuw i8, ptr %0, i64 30248
  %9 = load i64, ptr %8, align 8, !tbaa !19
  %10 = add i64 %7, %9
  %11 = getelementptr inbounds nuw i8, ptr %0, i64 30280
  %12 = load i64, ptr %11, align 8, !tbaa !20
  %13 = add i64 %10, %12
  br label %14

14:                                               ; preds = %1, %3
  %.0 = phi i64 [ %13, %3 ], [ 0, %1 ]
  ret i64 %.0
}